target datalayout = "e-m:e-p270:32:32-p271:32:32-p272:64:64-i64:64-i128:128-f80:128-n8:16:32:64-S128"
target triple = "x86_64-pc-linux-gnu"

%"class.llvm::SHA1" = type { %struct.anon }
%struct.anon = type { %union.anon, [5 x i32], i32, i8 }
%union.anon = type { [16 x i32] }

; Function Attrs: mustprogress nounwind uwtable
define dso_local void @_ZN4llvm4SHA112addUncountedEh(ptr noundef nonnull align 4 dereferenceable(92) %0, i8 noundef zeroext %1) #0 align 2 {
  %3 = alloca ptr, align 8
  %4 = alloca i8, align 1
  store ptr %0, ptr %3, align 8
  store i8 %1, ptr %4, align 1
  %5 = load ptr, ptr %3, align 8
  %6 = load i8, ptr %4, align 1
  %7 = getelementptr inbounds nuw %"class.llvm::SHA1", ptr %5, i32 0, i32 0
  %8 = getelementptr inbounds nuw %struct.anon, ptr %7, i32 0, i32 0
  %9 = getelementptr inbounds nuw %"class.llvm::SHA1", ptr %5, i32 0, i32 0
  %10 = getelementptr inbounds nuw %struct.anon, ptr %9, i32 0, i32 3
  %11 = load i8, ptr %10, align 4
  %12 = zext i8 %11 to i32
  %13 = xor i32 %12, 3
  %14 = sext i32 %13 to i64
  %15 = getelementptr inbounds [64 x i8], ptr %8, i64 0, i64 %14
  store i8 %6, ptr %15, align 1
  %16 = getelementptr inbounds nuw %"class.llvm::SHA1", ptr %5, i32 0, i32 0
  %17 = getelementptr inbounds nuw %struct.anon, ptr %16, i32 0, i32 3
  %18 = load i8, ptr %17, align 4
  %19 = add i8 %18, 1
  store i8 %19, ptr %17, align 4
  %20 = getelementptr inbounds nuw %"class.llvm::SHA1", ptr %5, i32 0, i32 0
  %21 = getelementptr inbounds nuw %struct.anon, ptr %20, i32 0, i32 3
  %22 = load i8, ptr %21, align 4
  %23 = zext i8 %22 to i32
  %24 = icmp eq i32 %23, 64
  br i1 %24, label %25, label %28

25:                                               ; preds = %2
  call void @_ZN4llvm4SHA19hashBlockEv(ptr noundef nonnull align 4 dereferenceable(92) %5)
  %26 = getelementptr inbounds nuw %"class.llvm::SHA1", ptr %5, i32 0, i32 0
  %27 = getelementptr inbounds nuw %struct.anon, ptr %26, i32 0, i32 3
  store i8 0, ptr %27, align 4
  br label %28

28:                                               ; preds = %25, %2
  ret void
}

; Function Attrs: mustprogress nounwind uwtable
define dso_local void @_ZN4llvm4SHA19writebyteEh(ptr noundef nonnull align 4 dereferenceable(92) %0, i8 noundef zeroext %1) #0 align 2 {
  %3 = alloca ptr, align 8
  %4 = alloca i8, align 1
  store ptr %0, ptr %3, align 8
  store i8 %1, ptr %4, align 1
  %5 = load ptr, ptr %3, align 8
  %6 = getelementptr inbounds nuw %"class.llvm::SHA1", ptr %5, i32 0, i32 0
  %7 = getelementptr inbounds nuw %struct.anon, ptr %6, i32 0, i32 2
  %8 = load i32, ptr %7, align 4
  %9 = add i32 %8, 1
  store i32 %9, ptr %7, align 4
  %10 = load i8, ptr %4, align 1
  call void @_ZN4llvm4SHA112addUncountedEh(ptr noundef nonnull align 4 dereferenceable(92) %5, i8 noundef zeroext %10)
  ret void
}