; Function Attrs: mustprogress nofree norecurse nosync nounwind willreturn memory(argmem: readwrite) uwtable
define dso_local void @_ZN4llvm4SHA19writebyteEh(ptr noundef nonnull align 4 captures(none) dereferenceable(92) %0, i8 noundef zeroext %1) local_unnamed_addr #1 align 2 {
  %3 = getelementptr inbounds nuw i8, ptr %0, i64 84
  %4 = load i32, ptr %3, align 4
  %5 = add i32 %4, 1
  store i32 %5, ptr %3, align 4
  %6 = getelementptr inbounds nuw i8, ptr %0, i64 88
  %7 = load i8, ptr %6, align 4
  %8 = xor i8 %7, 3
  %9 = zext i8 %8 to i64
  %10 = getelementptr inbounds nuw [64 x i8], ptr %0, i64 0, i64 %9
  store i8 %1, ptr %10, align 1
  %11 = load i8, ptr %6, align 4
  %12 = add i8 %11, 1
  store i8 %12, ptr %6, align 4
  %13 = icmp eq i8 %12, 64
  br i1 %13, label %14, label %_ZN4llvm4SHA112addUncountedEh.exit

14:                                               ; preds = %2
  tail call void @_ZN4llvm4SHA19hashBlockEv(ptr noundef nonnull align 4 dereferenceable(92) %0)
  store i8 0, ptr %6, align 4
  br label %_ZN4llvm4SHA112addUncountedEh.exit

_ZN4llvm4SHA112addUncountedEh.exit:               ; preds = %2, %14
  ret void
}